; Function Attrs: mustprogress uwtable
define internal void @_ZNK5faiss12_GLOBAL__N_114IVFFlatScannerILNS_10MetricTypeE1ENS_4CMaxIflEELb1EE16scan_codes_rangeEmPKhPKlfRNS_16RangeQueryResultE(ptr noundef nonnull readonly align 8 captures(none) dereferenceable(56) %0, i64 noundef %1, ptr noundef %2, ptr noundef readonly captures(none) %3, float noundef %4, ptr noundef nonnull align 8 dereferenceable(24) %5) unnamed_addr #3 align 2 {
  %.not = icmp eq i64 %1, 0
  br i1 %.not, label %._crit_edge, label %.lr.ph

.lr.ph:                                           ; preds = %6
  %7 = getelementptr inbounds nuw i8, ptr %0, i64 40
  %8 = getelementptr inbounds nuw i8, ptr %0, i64 24
  %9 = getelementptr inbounds nuw i8, ptr %0, i64 48
  %10 = getelementptr inbounds nuw i8, ptr %0, i64 17
  %11 = getelementptr inbounds nuw i8, ptr %0, i64 8
  br label %12

._crit_edge:                                      ; preds = %38, %6
  ret void

12:                                               ; preds = %.lr.ph, %38
  %.017 = phi i64 [ 0, %.lr.ph ], [ %39, %38 ]
  %13 = load i64, ptr %7, align 8, !tbaa !132
  %14 = load ptr, ptr %8, align 8, !tbaa !60
  %15 = getelementptr inbounds nuw i64, ptr %3, i64 %.017
  %16 = load i64, ptr %15, align 8, !tbaa !36
  %17 = load ptr, ptr %14, align 8, !tbaa !62
  %18 = load ptr, ptr %17, align 8
  %19 = tail call noundef zeroext i1 %18(ptr noundef nonnull align 8 dereferenceable(8) %14, i64 noundef %16)
  br i1 %19, label %20, label %38

20:                                               ; preds = %12
  %21 = mul i64 %13, %.017
  %22 = getelementptr inbounds nuw float, ptr %2, i64 %21
  %23 = load ptr, ptr %9, align 8, !tbaa !130
  %24 = load i64, ptr %7, align 8, !tbaa !132
  %25 = tail call noundef float @_ZN5faiss10fvec_L2sqrEPKfS1_m(ptr noundef %23, ptr noundef %22, i64 noundef %24)
  %26 = fcmp ogt float %4, %25
  br i1 %26, label %27, label %38

27:                                               ; preds = %20
  %28 = load i8, ptr %10, align 1, !tbaa !59, !range !42, !noundef !43
  %29 = trunc nuw i8 %28 to i1
  br i1 %29, label %30, label %34

30:                                               ; preds = %27
  %31 = load i64, ptr %11, align 8, !tbaa !56
  %32 = shl i64 %31, 32
  %33 = or i64 %32, %.017
  br label %36

34:                                               ; preds = %27
  %35 = load i64, ptr %15, align 8, !tbaa !36
  br label %36

36:                                               ; preds = %34, %30
  %37 = phi i64 [ %33, %30 ], [ %35, %34 ]
  tail call void @_ZN5faiss16RangeQueryResult3addEfl(ptr noundef nonnull align 8 dereferenceable(24) %5, float noundef %25, i64 noundef %37)
  br label %38

38:                                               ; preds = %20, %36, %12
  %39 = add nuw i64 %.017, 1
  %exitcond.not = icmp eq i64 %39, %1
  br i1 %exitcond.not, label %._crit_edge, label %12, !llvm.loop !135
}